; ModuleID = 'source-C-CXX/21/585.c'
source_filename = "source-C-CXX/21/585.c"
target datalayout = "e-m:e-p270:32:32-p271:32:32-p272:64:64-i64:64-f80:128-n8:16:32:64-S128"
target triple = "x86_64-pc-linux-gnu"

%struct._IO_FILE = type { i32, i8*, i8*, i8*, i8*, i8*, i8*, i8*, i8*, i8*, i8*, i8*, %struct._IO_marker*, %struct._IO_FILE*, i32, i32, i64, i16, i8, [1 x i8], i8*, i64, %struct._IO_codecvt*, %struct._IO_wide_data*, %struct._IO_FILE*, i8*, i64, i32, [20 x i8] }
%struct._IO_marker = type opaque
%struct._IO_codecvt = type opaque
%struct._IO_wide_data = type opaque

@.str = private unnamed_addr constant [3 x i8] c"%d\00", align 1
@.str.1 = private unnamed_addr constant [3 x i8] c"No\00", align 1
@stdin = external local_unnamed_addr global %struct._IO_FILE*, align 8

; Function Attrs: nofree nounwind sspstrong uwtable
define dso_local i32 @main() local_unnamed_addr #0 {
  %1 = alloca [300 x i32], align 16
  %2 = bitcast [300 x i32]* %1 to i8*
  call void @llvm.lifetime.start.p0i8(i64 1200, i8* nonnull %2) #3
  br label %3

3:                                                ; preds = %0, %3
  %4 = phi i64 [ 0, %0 ], [ %9, %3 ]
  %5 = getelementptr inbounds [300 x i32], [300 x i32]* %1, i64 0, i64 %4
  %6 = call i32 (i8*, ...) @__isoc99_scanf(i8* getelementptr inbounds ([3 x i8], [3 x i8]* @.str, i64 0, i64 0), i32* nonnull %5)
  %7 = load %struct._IO_FILE*, %struct._IO_FILE** @stdin, align 8, !tbaa !5
  %8 = call i32 @getc(%struct._IO_FILE* %7) #3
  %9 = add nuw i64 %4, 1
  %10 = and i32 %8, 255
  %11 = icmp eq i32 %10, 44
  br i1 %11, label %3, label %12, !llvm.loop !9

12:                                               ; preds = %3
  %13 = trunc i64 %4 to i32
  %14 = getelementptr inbounds [300 x i32], [300 x i32]* %1, i64 0, i64 0
  %15 = load i32, i32* %14, align 16, !tbaa !11
  %16 = getelementptr inbounds [300 x i32], [300 x i32]* %1, i64 0, i64 1
  %17 = load i32, i32* %16, align 4, !tbaa !11
  %18 = icmp slt i32 %15, %17
  %19 = select i1 %18, i32 %17, i32 %15
  %20 = select i1 %18, i32 %15, i32 %17
  store i32 %20, i32* %16, align 4, !tbaa !11
  %21 = icmp ugt i32 %13, 1
  br i1 %21, label %22, label %51

22:                                               ; preds = %12
  %23 = and i64 %4, 4294967295
  br label %24

24:                                               ; preds = %22, %46
  %25 = phi i64 [ 1, %22 ], [ %27, %46 ]
  %26 = phi i32 [ %19, %22 ], [ %47, %46 ]
  %27 = add nuw nsw i64 %25, 1
  %28 = getelementptr inbounds [300 x i32], [300 x i32]* %1, i64 0, i64 %27
  %29 = load i32, i32* %28, align 4, !tbaa !11
  %30 = icmp slt i32 %26, %29
  br i1 %30, label %43, label %31

31:                                               ; preds = %24
  %32 = icmp eq i32 %26, %29
  %33 = getelementptr inbounds [300 x i32], [300 x i32]* %1, i64 0, i64 %25
  %34 = load i32, i32* %33, align 4, !tbaa !11
  br i1 %32, label %35, label %37

35:                                               ; preds = %31
  %36 = icmp eq i32 %26, %34
  br i1 %36, label %37, label %43

37:                                               ; preds = %31, %35
  %38 = phi i32 [ %26, %35 ], [ %34, %31 ]
  %39 = icmp eq i32 %26, %38
  br i1 %39, label %46, label %40

40:                                               ; preds = %37
  %41 = icmp slt i32 %38, %29
  %42 = select i1 %41, i32 %29, i32 %38
  br label %43

43:                                               ; preds = %35, %24, %40
  %44 = phi i32 [ %42, %40 ], [ %26, %24 ], [ %34, %35 ]
  %45 = phi i32 [ %26, %40 ], [ %29, %24 ], [ %26, %35 ]
  store i32 %44, i32* %28, align 4, !tbaa !11
  br label %46

46:                                               ; preds = %43, %37
  %47 = phi i32 [ %26, %37 ], [ %45, %43 ]
  %48 = icmp eq i64 %27, %23
  br i1 %48, label %49, label %24, !llvm.loop !13

49:                                               ; preds = %46
  %50 = and i64 %4, 4294967295
  br label %51

51:                                               ; preds = %49, %12
  %52 = phi i64 [ 1, %12 ], [ %50, %49 ]
  %53 = phi i32 [ %19, %12 ], [ %47, %49 ]
  %54 = icmp eq i32 %13, 0
  br i1 %54, label %55, label %57

55:                                               ; preds = %51
  %56 = call i32 (i8*, ...) @printf(i8* nonnull dereferenceable(1) getelementptr inbounds ([3 x i8], [3 x i8]* @.str.1, i64 0, i64 0))
  br label %65

57:                                               ; preds = %51
  %58 = getelementptr inbounds [300 x i32], [300 x i32]* %1, i64 0, i64 %52
  %59 = load i32, i32* %58, align 4, !tbaa !11
  %60 = icmp eq i32 %53, %59
  br i1 %60, label %61, label %63

61:                                               ; preds = %57
  %62 = call i32 (i8*, ...) @printf(i8* nonnull dereferenceable(1) getelementptr inbounds ([3 x i8], [3 x i8]* @.str.1, i64 0, i64 0))
  br label %65

63:                                               ; preds = %57
  %64 = call i32 (i8*, ...) @printf(i8* nonnull dereferenceable(1) getelementptr inbounds ([3 x i8], [3 x i8]* @.str, i64 0, i64 0), i32 %59)
  br label %65

65:                                               ; preds = %61, %63, %55
  call void @llvm.lifetime.end.p0i8(i64 1200, i8* nonnull %2) #3
  ret i32 0
}

; Function Attrs: argmemonly mustprogress nofree nosync nounwind willreturn
declare void @llvm.lifetime.start.p0i8(i64 immarg, i8* nocapture) #1

; Function Attrs: nofree nounwind
declare noundef i32 @__isoc99_scanf(i8* nocapture noundef readonly, ...) local_unnamed_addr #2

; Function Attrs: nofree nounwind
declare noundef i32 @printf(i8* nocapture noundef readonly, ...) local_unnamed_addr #2

; Function Attrs: argmemonly mustprogress nofree nosync nounwind willreturn
declare void @llvm.lifetime.end.p0i8(i64 immarg, i8* nocapture) #1

; Function Attrs: nofree nounwind
declare noundef i32 @getc(%struct._IO_FILE* nocapture noundef) local_unnamed_addr #2


!llvm.module.flags = !{!0, !1, !2, !3}
!llvm.ident = !{!4}

!0 = !{i32 1, !"wchar_size", i32 4}
!1 = !{i32 7, !"PIC Level", i32 2}
!2 = !{i32 7, !"PIE Level", i32 2}
!3 = !{i32 7, !"uwtable", i32 1}
!4 = !{!"clang version 13.0.0"}
!5 = !{!6, !6, i64 0}
!6 = !{!"any pointer", !7, i64 0}
!7 = !{!"omnipotent char", !8, i64 0}
!8 = !{!"Simple C/C++ TBAA"}
!9 = distinct !{!9, !10}
!10 = !{!"llvm.loop.mustprogress"}
!11 = !{!12, !12, i64 0}
!12 = !{!"int", !7, i64 0}
!13 = distinct !{!13, !10}
